(dp1
S'tag-_todo'
p2
(lp3
sS'taggedIds'
p4
(lp5
S'id-043e72bbba923800016e8d93b82b902e'
p6
asg6
(lp7
S'_todo'
p8
aS'sample'
p9
asS'id-id-043e72bbba923800016e8d93b82b902e'
p10
(lp11
sS'myTags'
p12
(lp13
g8
ag9
as.