(iconverted_data
convertedData
p1
(dp2
S'_convertedData__renditions'
p3
(dp4
S'.pdf'
p5
S'testConvertedData/rendition-.pdf'
p6
sS'.ALL.txt'
p7
S'testConvertedData/rendition-.ALL.txt'
p8
sS'.xhtml.body'
p9
S'testConvertedData/rendition-.xhtml.body'
p10
ssS'_convertedData__images'
p11
(dp12
S'm7e526c9f.gif'
p13
S'testConvertedData/m7e526c9f.gif'
p14
sS'm236bb6e0.gif'
p15
S'testConvertedData/m236bb6e0.gif'
p16
sS'11167e99.png'
p17
S'testConvertedData/11167e99.png'
p18
sS'm43251e1f.gif'
p19
S'testConvertedData/m43251e1f.gif'
p20
sS'm3b38cb36.gif'
p21
S'testConvertedData/m3b38cb36.gif'
p22
sS'2fd541e5.gif'
p23
S'testConvertedData/2fd541e5.gif'
p24
ssS'_convertedData__metas'
p25
(dp26
S'images'
p27
(lp28
S'm3b38cb36_16x16.gif'
p29
aS'2fd541e5_507x171.gif'
p30
aS'11167e99_57x57.png'
p31
aS'm236bb6e0_16x16.gif'
p32
aS'm43251e1f_16x16.gif'
p33
aS'm7e526c9f_25x24.gif'
p34
asS'style.css'
p35
S'<style type="text/css">table {border-spacing: 0;empty-cells: show;} table.Table54 {width:100%; } div.Table54 {width: 100%; margin: 0px; padding: 0px; } th.Table54_A1, td.Table54_A1 {vertical-align: top;padding-left:0cm; padding-right:0cm; padding-top:0.101cm; padding-bottom:0.101cm; border:none; } table.Table53 {width:100%; } div.Table53 {width: 100%; margin: 0px; padding: 0px; } th.Table53_A1, td.Table53_A1 {vertical-align: top;padding-left:0cm; padding-right:0cm; padding-top:0.101cm; padding-bottom:0.101cm; border:none; } table.Table49 {width:100%; } div.Table49 {width: 100%; margin: 0px; padding: 0px; } th.Table49_A1, td.Table49_A1 {vertical-align: top;padding-left:0cm; padding-right:0cm; padding-top:0.101cm; padding-bottom:0.101cm; border:none; } table.Table56 {width:14.601cm; } div.Table56 {width: 100%; margin: 0px; padding: 0px; } th.Table56_A1, td.Table56_A1 {vertical-align: top;padding:0.097cm; border-left:0.002cm solid #000000; border-right:none; border-top:0.002cm solid #000000; border-bottom:0.002cm solid #000000; } th.Table56_B1, td.Table56_B1 {vertical-align: top;padding:0.097cm; border:0.002cm solid #000000; } th.Table56_A2, td.Table56_A2 {vertical-align: top;padding:0.097cm; border-left:0.002cm solid #000000; border-right:none; border-top:none; border-bottom:0.002cm solid #000000; } th.Table56_B2, td.Table56_B2 {vertical-align: top;padding:0.097cm; border-left:0.002cm solid #000000; border-right:0.002cm solid #000000; border-top:none; border-bottom:0.002cm solid #000000; } table.Table48 {width:100%; } div.Table48 {width: 100%; margin: 0px; padding: 0px; } th.Table48_A1, td.Table48_A1 {vertical-align: top;padding-left:0cm; padding-right:0cm; padding-top:0.101cm; padding-bottom:0.101cm; border:none; } table.Table58 {width:100%; } div.Table58 {width: 100%; margin: 0px; padding: 0px; } th.Table58_A1, td.Table58_A1 {vertical-align: top;padding-left:0cm; padding-right:0cm; padding-top:0.101cm; padding-bottom:0.101cm; border:none; } table.Table50 {width:100%; } div.Table50 {width: 100%; margin: 0px; padding: 0px; } th.Table50_A1, td.Table50_A1 {vertical-align: top;padding-left:0cm; padding-right:0cm; padding-top:0.101cm; padding-bottom:0.101cm; border:none; } table.Table55 {width:100%; } div.Table55 {width: 100%; margin: 0px; padding: 0px; } th.Table55_A1, td.Table55_A1 {vertical-align: top;padding-left:0cm; padding-right:0cm; padding-top:0.101cm; padding-bottom:0.101cm; border:none; } table.Table52 {width:100%; } div.Table52 {width: 100%; margin: 0px; padding: 0px; } th.Table52_A1, td.Table52_A1 {vertical-align: top;padding-left:0cm; padding-right:0cm; padding-top:0.101cm; padding-bottom:0.101cm; border:none; } th.Table52_B1_1_2, td.Table52_B1_1_2 {vertical-align: top;background-color:transparent; padding-left:0cm; padding-right:0cm; padding-top:0.101cm; padding-bottom:0.101cm; border:none; } table.Table51 {width:100%; } div.Table51 {width: 100%; margin: 0px; padding: 0px; } th.Table51_A1, td.Table51_A1 {vertical-align: top;padding-left:0cm; padding-right:0cm; padding-top:0.101cm; padding-bottom:0.101cm; border:none; } div.Table57 {width: 100%; margin: 0px; padding: 0px; } th.Table57_A1, td.Table57_A1 {vertical-align: top;padding-left:0cm; padding-right:0cm; padding-top:0.101cm; padding-bottom:0.101cm; border:none; } p.P3 {keep-together:always; } p.P8 {keep-together:always; } p.P11 {keep-together:always; } p.P16 {keep-together:always; } p.P17 {margin-top:0.21cm; margin-bottom:0.21cm; } span.T1 {font-style:normal; } span.T2 {font-family:; } span.T3 {font-family:; font-style:normal; }</style>'
p36
sS'links'
p37
(dp38
S'http://www.usq.edu.au/'
p39
S'http://www.usq.edu.au'
p40
sS'../media/flash/flash.swf'
p41
S'Flash Link'
p42
sS'#linkanotherfile'
p43
S'section 2.10.4'
p44
sS'#targetframe'
p45
S'section 2.10.3'
p46
ssS'title'
p47
S'Module 2 \xe2\x80\x93 Word processing with OpenOffice.org (OOo) Writer'
p48
ssS'_convertedData__errorMessage'
p49
S''
sS'_convertedData__tempDir'
p50
Nsb.